; Function Attrs: mustprogress uwtable
define noundef zeroext i1 @_ZNK32pxrInternal_v0_24__pxrReserved__8Usd_Clip9IsBlockedERKNS_7SdfPathEd(ptr noundef nonnull align 8 dereferenceable(208) %0, ptr noundef nonnull align 4 dereferenceable(8) %1, double noundef %2) local_unnamed_addr #0 align 2 personality ptr @__gxx_personality_v0 {
  %4 = alloca %"class.pxrInternal_v0_24__pxrReserved__::TfCallContext", align 8
  %5 = alloca %"class.pxrInternal_v0_24__pxrReserved__::SdfAbstractDataTypedValue", align 8
  %6 = alloca %"class.pxrInternal_v0_24__pxrReserved__::TfRefPtr.3", align 8
  %7 = getelementptr inbounds nuw i8, ptr %5, i64 8
  store ptr null, ptr %7, align 8
  %8 = getelementptr inbounds nuw i8, ptr %5, i64 16
  store ptr @_ZTIN32pxrInternal_v0_24__pxrReserved__13SdfValueBlockE, ptr %8, align 8
  %9 = getelementptr inbounds nuw i8, ptr %5, i64 24
  store i8 0, ptr %9, align 8
  %10 = getelementptr inbounds nuw i8, ptr %5, i64 25
  store i8 0, ptr %10, align 1
  store ptr getelementptr inbounds nuw inrange(-16, 16) (i8, ptr @_ZTVN32pxrInternal_v0_24__pxrReserved__25SdfAbstractDataTypedValueINS_13SdfValueBlockEEE, i64 16), ptr %5, align 8
  call void @_ZNK32pxrInternal_v0_24__pxrReserved__8Usd_Clip16_GetLayerForClipEv(ptr dead_on_unwind nonnull writable sret(%"class.pxrInternal_v0_24__pxrReserved__::TfRefPtr.3") align 8 %6, ptr noundef nonnull align 8 dereferenceable(208) %0)
  call void @llvm.lifetime.start.p0(i64 40, ptr nonnull %4)
  %11 = load ptr, ptr %6, align 8
  %.not.i = icmp eq ptr %11, null
  br i1 %.not.i, label %12, label %17

12:                                               ; preds = %3
  store ptr @.str.18, ptr %4, align 8
  %13 = getelementptr inbounds nuw i8, ptr %4, i64 8
  store ptr @__func__._ZNK32pxrInternal_v0_24__pxrReserved__8TfRefPtrINS_8SdfLayerEEptEv, ptr %13, align 8
  %14 = getelementptr inbounds nuw i8, ptr %4, i64 16
  store i64 936, ptr %14, align 8
  %15 = getelementptr inbounds nuw i8, ptr %4, i64 24
  store ptr @__PRETTY_FUNCTION__._ZNK32pxrInternal_v0_24__pxrReserved__8TfRefPtrINS_8SdfLayerEEptEv, ptr %15, align 8
  %16 = getelementptr inbounds nuw i8, ptr %4, i64 32
  store i8 0, ptr %16, align 8
  invoke void @_ZN32pxrInternal_v0_24__pxrReserved__40Tf_PostNullSmartPtrDereferenceFatalErrorERKNS_13TfCallContextEPKc(ptr noundef nonnull align 8 dereferenceable(33) %4, ptr noundef nonnull @_ZTSN32pxrInternal_v0_24__pxrReserved__8TfRefPtrINS_8SdfLayerEEE) #17
          to label %.noexc unwind label %47

.noexc:                                           ; preds = %12
  unreachable

17:                                               ; preds = %3
  call void @llvm.lifetime.end.p0(i64 40, ptr nonnull %4)
  %18 = invoke noundef double @_ZNK32pxrInternal_v0_24__pxrReserved__8Usd_Clip24_TranslateTimeToInternalEd(ptr noundef nonnull align 8 dereferenceable(208) %0, double noundef %2)
          to label %19 unwind label %47

19:                                               ; preds = %17
  %20 = invoke noundef zeroext i1 @_ZNK32pxrInternal_v0_24__pxrReserved__8SdfLayer15QueryTimeSampleERKNS_7SdfPathEdPNS_20SdfAbstractDataValueE(ptr noundef nonnull align 8 dereferenceable(557) %11, ptr noundef nonnull align 4 dereferenceable(8) %1, double noundef %18, ptr noundef nonnull %5)
          to label %21 unwind label %47

21:                                               ; preds = %19
  %22 = load i8, ptr %9, align 8
  %23 = getelementptr inbounds nuw i8, ptr %11, i64 8
  %24 = load atomic i32, ptr %23 monotonic, align 4
  %25 = icmp slt i32 %24, 0
  br i1 %25, label %26, label %_ZN32pxrInternal_v0_24__pxrReserved__30Tf_RefPtr_UniqueChangedCounter9RemoveRefEPKNS_9TfRefBaseE.exit.i.i

26:                                               ; preds = %21
  %.not68.i.i.i = icmp eq i32 %24, -2
  br i1 %.not68.i.i.i, label %34, label %27

27:                                               ; preds = %26
  %28 = add nsw i32 %24, 1
  %29 = cmpxchg weak ptr %23, i32 %24, i32 %28 release monotonic, align 4
  %30 = extractvalue { i32, i1 } %29, 1
  %31 = extractvalue { i32, i1 } %29, 0
  br i1 %30, label %32, label %34

32:                                               ; preds = %27
  %33 = icmp eq i32 %24, -1
  br i1 %33, label %38, label %_ZN32pxrInternal_v0_24__pxrReserved__8TfRefPtrINS_8SdfLayerEED2Ev.exit

34:                                               ; preds = %27, %26
  %.067.i.i.i = phi i32 [ %31, %27 ], [ -2, %26 ]
  %35 = invoke noundef zeroext i1 @_ZN32pxrInternal_v0_24__pxrReserved__30Tf_RefPtr_UniqueChangedCounter21_RemoveRefMaybeLockedEPKNS_9TfRefBaseEi(ptr noundef nonnull %11, i32 noundef %.067.i.i.i)
          to label %.noexc.i unwind label %42

.noexc.i:                                         ; preds = %34
  br i1 %35, label %38, label %_ZN32pxrInternal_v0_24__pxrReserved__8TfRefPtrINS_8SdfLayerEED2Ev.exit

_ZN32pxrInternal_v0_24__pxrReserved__30Tf_RefPtr_UniqueChangedCounter9RemoveRefEPKNS_9TfRefBaseE.exit.i.i: ; preds = %21
  %36 = atomicrmw sub ptr %23, i32 1 release, align 4
  %37 = icmp eq i32 %36, 1
  br i1 %37, label %38, label %_ZN32pxrInternal_v0_24__pxrReserved__8TfRefPtrINS_8SdfLayerEED2Ev.exit

38:                                               ; preds = %_ZN32pxrInternal_v0_24__pxrReserved__30Tf_RefPtr_UniqueChangedCounter9RemoveRefEPKNS_9TfRefBaseE.exit.i.i, %.noexc.i, %32
  %39 = load ptr, ptr %11, align 8
  %40 = getelementptr inbounds nuw i8, ptr %39, i64 8
  %41 = load ptr, ptr %40, align 8
  call void %41(ptr noundef nonnull align 8 dereferenceable(12) %11) #18
  br label %_ZN32pxrInternal_v0_24__pxrReserved__8TfRefPtrINS_8SdfLayerEED2Ev.exit

42:                                               ; preds = %34
  %43 = landingpad { ptr, i32 }
          catch ptr null
  %44 = extractvalue { ptr, i32 } %43, 0
  call void @__clang_call_terminate(ptr %44) #19
  unreachable

_ZN32pxrInternal_v0_24__pxrReserved__8TfRefPtrINS_8SdfLayerEED2Ev.exit: ; preds = %32, %.noexc.i, %_ZN32pxrInternal_v0_24__pxrReserved__30Tf_RefPtr_UniqueChangedCounter9RemoveRefEPKNS_9TfRefBaseE.exit.i.i, %38
  %45 = trunc i8 %22 to i1
  %46 = select i1 %20, i1 %45, i1 false
  ret i1 %46

47:                                               ; preds = %12, %19, %17
  %48 = landingpad { ptr, i32 }
          cleanup
  call void @_ZN32pxrInternal_v0_24__pxrReserved__8TfRefPtrINS_8SdfLayerEED2Ev(ptr noundef nonnull align 8 dereferenceable(8) %6) #18
  resume { ptr, i32 } %48
}